target datalayout = "e-m:e-p270:32:32-p271:32:32-p272:64:64-i64:64-i128:128-f80:128-n8:16:32:64-S128"
target triple = "x86_64-pc-linux-gnu"

%struct.png_struct_def = type { [1 x %struct.__jmp_buf_tag], ptr, ptr, i64, ptr, ptr, ptr, ptr, ptr, ptr, ptr, ptr, ptr, i8, i8, i32, i32, i32, i32, %struct.z_stream_s, ptr, i32, i32, i32, i32, i32, i32, i32, i32, i32, i32, i32, i32, i32, i32, i32, i32, i32, i32, i32, i32, i32, i64, i32, i32, i32, ptr, ptr, ptr, ptr, i64, i32, i32, ptr, i16, i32, i16, i8, i8, i8, i8, i8, i8, i8, i8, i8, i8, i8, i8, i8, i8, i8, i16, i8, i32, %struct.png_color_16_struct, %struct.png_color_16_struct, ptr, i32, i32, %struct.png_xy, i32, i32, i32, i32, i32, ptr, ptr, ptr, ptr, ptr, ptr, %struct.png_color_8_struct, %struct.png_color_8_struct, ptr, %struct.png_color_16_struct, ptr, ptr, ptr, ptr, ptr, ptr, ptr, ptr, ptr, i32, i32, i64, i64, i64, i64, i32, i32, ptr, ptr, i32, [29 x i8], i32, ptr, ptr, i32, i32, ptr, i8, i8, i16, i16, ptr, i32, i8, ptr, ptr, ptr, ptr, ptr, ptr, ptr, i8, i32, i32, i32, i64, %struct.png_unknown_chunk_t, i64, ptr, i64, i32, i32, ptr, [4 x ptr] }
%struct.__jmp_buf_tag = type { [8 x i64], i32, %struct.__sigset_t }
%struct.__sigset_t = type { [16 x i64] }
%struct.z_stream_s = type { ptr, i32, i64, ptr, i32, i64, ptr, ptr, ptr, ptr, ptr, i32, i64, i64 }
%struct.png_xy = type { i32, i32, i32, i32, i32, i32, i32, i32 }
%struct.png_color_8_struct = type { i8, i8, i8, i8, i8 }
%struct.png_color_16_struct = type { i8, i16, i16, i16, i16 }
%struct.png_unknown_chunk_t = type { [5 x i8], ptr, i64, i8 }

; Function Attrs: nounwind uwtable
define void @png_init_filter_functions_sse2(ptr noundef %0, i32 noundef %1) #0 {
  %3 = alloca ptr, align 8
  %4 = alloca i32, align 4
  store ptr %0, ptr %3, align 8, !tbaa !3
  store i32 %1, ptr %4, align 4, !tbaa !8
  %5 = load i32, ptr %4, align 4, !tbaa !8
  %6 = icmp eq i32 %5, 3
  br i1 %6, label %7, label %17

7:                                                ; preds = %2
  %8 = load ptr, ptr %3, align 8, !tbaa !3
  %9 = getelementptr inbounds nuw %struct.png_struct_def, ptr %8, i32 0, i32 149
  %10 = getelementptr inbounds [4 x ptr], ptr %9, i64 0, i64 0
  store ptr @png_read_filter_row_sub3_sse2, ptr %10, align 8, !tbaa !10
  %11 = load ptr, ptr %3, align 8, !tbaa !3
  %12 = getelementptr inbounds nuw %struct.png_struct_def, ptr %11, i32 0, i32 149
  %13 = getelementptr inbounds [4 x ptr], ptr %12, i64 0, i64 2
  store ptr @png_read_filter_row_avg3_sse2, ptr %13, align 8, !tbaa !10
  %14 = load ptr, ptr %3, align 8, !tbaa !3
  %15 = getelementptr inbounds nuw %struct.png_struct_def, ptr %14, i32 0, i32 149
  %16 = getelementptr inbounds [4 x ptr], ptr %15, i64 0, i64 3
  store ptr @png_read_filter_row_paeth3_sse2, ptr %16, align 8, !tbaa !10
  br label %31

17:                                               ; preds = %2
  %18 = load i32, ptr %4, align 4, !tbaa !8
  %19 = icmp eq i32 %18, 4
  br i1 %19, label %20, label %30

20:                                               ; preds = %17
  %21 = load ptr, ptr %3, align 8, !tbaa !3
  %22 = getelementptr inbounds nuw %struct.png_struct_def, ptr %21, i32 0, i32 149
  %23 = getelementptr inbounds [4 x ptr], ptr %22, i64 0, i64 0
  store ptr @png_read_filter_row_sub4_sse2, ptr %23, align 8, !tbaa !10
  %24 = load ptr, ptr %3, align 8, !tbaa !3
  %25 = getelementptr inbounds nuw %struct.png_struct_def, ptr %24, i32 0, i32 149
  %26 = getelementptr inbounds [4 x ptr], ptr %25, i64 0, i64 2
  store ptr @png_read_filter_row_avg4_sse2, ptr %26, align 8, !tbaa !10
  %27 = load ptr, ptr %3, align 8, !tbaa !3
  %28 = getelementptr inbounds nuw %struct.png_struct_def, ptr %27, i32 0, i32 149
  %29 = getelementptr inbounds [4 x ptr], ptr %28, i64 0, i64 3
  store ptr @png_read_filter_row_paeth4_sse2, ptr %29, align 8, !tbaa !10
  br label %30

30:                                               ; preds = %20, %17
  br label %31

31:                                               ; preds = %30, %7
  ret void
}

declare void @png_read_filter_row_sub3_sse2(ptr noundef, ptr noundef, ptr noundef) #1

declare void @png_read_filter_row_avg3_sse2(ptr noundef, ptr noundef, ptr noundef) #1

declare void @png_read_filter_row_paeth3_sse2(ptr noundef, ptr noundef, ptr noundef) #1

declare void @png_read_filter_row_sub4_sse2(ptr noundef, ptr noundef, ptr noundef) #1

declare void @png_read_filter_row_avg4_sse2(ptr noundef, ptr noundef, ptr noundef) #1

declare void @png_read_filter_row_paeth4_sse2(ptr noundef, ptr noundef, ptr noundef) #1


!llvm.module.flags = !{!0, !1, !2}

!0 = !{i32 1, !"wchar_size", i32 4}
!1 = !{i32 8, !"PIC Level", i32 2}
!2 = !{i32 7, !"uwtable", i32 2}
!3 = !{!4, !4, i64 0}
!4 = !{!"p1 _ZTS14png_struct_def", !5, i64 0}
!5 = !{!"any pointer", !6, i64 0}
!6 = !{!"omnipotent char", !7, i64 0}
!7 = !{!"Simple C/C++ TBAA"}
!8 = !{!9, !9, i64 0}
!9 = !{!"int", !6, i64 0}
!10 = !{!5, !5, i64 0}
